target datalayout = "e-m:e-p270:32:32-p271:32:32-p272:64:64-i64:64-i128:128-f80:128-n8:16:32:64-S128"
target triple = "x86_64-pc-linux-gnu"

%struct.ssl_st = type { i32, ptr, ptr, ptr, %struct.CRYPTO_REF_COUNT, ptr, %struct.crypto_ex_data_st }
%struct.CRYPTO_REF_COUNT = type { i32 }
%struct.crypto_ex_data_st = type { ptr, ptr }

@.str = private unnamed_addr constant [6 x i8] c"error\00", align 1
@.str.1 = private unnamed_addr constant [34 x i8] c"SSLv3/TLS read certificate status\00", align 1
@.str.2 = private unnamed_addr constant [27 x i8] c"SSLv3/TLS write next proto\00", align 1
@.str.3 = private unnamed_addr constant [26 x i8] c"SSLv3/TLS read next proto\00", align 1
@.str.4 = private unnamed_addr constant [35 x i8] c"SSLv3/TLS write certificate status\00", align 1
@.str.5 = private unnamed_addr constant [26 x i8] c"before SSL initialization\00", align 1
@.str.6 = private unnamed_addr constant [38 x i8] c"SSL negotiation finished successfully\00", align 1
@.str.7 = private unnamed_addr constant [29 x i8] c"SSLv3/TLS write client hello\00", align 1
@.str.8 = private unnamed_addr constant [28 x i8] c"SSLv3/TLS read server hello\00", align 1
@.str.9 = private unnamed_addr constant [34 x i8] c"SSLv3/TLS read server certificate\00", align 1
@.str.10 = private unnamed_addr constant [43 x i8] c"TLSv1.3 read server compressed certificate\00", align 1
@.str.11 = private unnamed_addr constant [35 x i8] c"SSLv3/TLS read server key exchange\00", align 1
@.str.12 = private unnamed_addr constant [42 x i8] c"SSLv3/TLS read server certificate request\00", align 1
@.str.13 = private unnamed_addr constant [37 x i8] c"SSLv3/TLS read server session ticket\00", align 1
@.str.14 = private unnamed_addr constant [27 x i8] c"SSLv3/TLS read server done\00", align 1
@.str.15 = private unnamed_addr constant [35 x i8] c"SSLv3/TLS write client certificate\00", align 1
@.str.16 = private unnamed_addr constant [44 x i8] c"TLSv1.3 write client compressed certificate\00", align 1
@.str.17 = private unnamed_addr constant [36 x i8] c"SSLv3/TLS write client key exchange\00", align 1
@.str.18 = private unnamed_addr constant [35 x i8] c"SSLv3/TLS write certificate verify\00", align 1
@.str.19 = private unnamed_addr constant [35 x i8] c"SSLv3/TLS write change cipher spec\00", align 1
@.str.20 = private unnamed_addr constant [25 x i8] c"SSLv3/TLS write finished\00", align 1
@.str.21 = private unnamed_addr constant [34 x i8] c"SSLv3/TLS read change cipher spec\00", align 1
@.str.22 = private unnamed_addr constant [24 x i8] c"SSLv3/TLS read finished\00", align 1
@.str.23 = private unnamed_addr constant [28 x i8] c"SSLv3/TLS read client hello\00", align 1
@.str.24 = private unnamed_addr constant [30 x i8] c"SSLv3/TLS write hello request\00", align 1
@.str.25 = private unnamed_addr constant [29 x i8] c"SSLv3/TLS write server hello\00", align 1
@.str.26 = private unnamed_addr constant [28 x i8] c"SSLv3/TLS write certificate\00", align 1
@.str.27 = private unnamed_addr constant [44 x i8] c"TLSv1.3 write server compressed certificate\00", align 1
@.str.28 = private unnamed_addr constant [29 x i8] c"SSLv3/TLS write key exchange\00", align 1
@.str.29 = private unnamed_addr constant [36 x i8] c"SSLv3/TLS write certificate request\00", align 1
@.str.30 = private unnamed_addr constant [31 x i8] c"SSLv3/TLS write session ticket\00", align 1
@.str.31 = private unnamed_addr constant [28 x i8] c"SSLv3/TLS write server done\00", align 1
@.str.32 = private unnamed_addr constant [34 x i8] c"SSLv3/TLS read client certificate\00", align 1
@.str.33 = private unnamed_addr constant [43 x i8] c"TLSv1.3 read client compressed certificate\00", align 1
@.str.34 = private unnamed_addr constant [35 x i8] c"SSLv3/TLS read client key exchange\00", align 1
@.str.35 = private unnamed_addr constant [34 x i8] c"SSLv3/TLS read certificate verify\00", align 1
@.str.36 = private unnamed_addr constant [32 x i8] c"DTLS1 read hello verify request\00", align 1
@.str.37 = private unnamed_addr constant [33 x i8] c"DTLS1 write hello verify request\00", align 1
@.str.38 = private unnamed_addr constant [35 x i8] c"TLSv1.3 write encrypted extensions\00", align 1
@.str.39 = private unnamed_addr constant [34 x i8] c"TLSv1.3 read encrypted extensions\00", align 1
@.str.40 = private unnamed_addr constant [39 x i8] c"TLSv1.3 read server certificate verify\00", align 1
@.str.41 = private unnamed_addr constant [40 x i8] c"TLSv1.3 write server certificate verify\00", align 1
@.str.42 = private unnamed_addr constant [29 x i8] c"SSLv3/TLS read hello request\00", align 1
@.str.43 = private unnamed_addr constant [32 x i8] c"TLSv1.3 write server key update\00", align 1
@.str.44 = private unnamed_addr constant [32 x i8] c"TLSv1.3 write client key update\00", align 1
@.str.45 = private unnamed_addr constant [31 x i8] c"TLSv1.3 read client key update\00", align 1
@.str.46 = private unnamed_addr constant [31 x i8] c"TLSv1.3 read server key update\00", align 1
@.str.47 = private unnamed_addr constant [19 x i8] c"TLSv1.3 early data\00", align 1
@.str.48 = private unnamed_addr constant [31 x i8] c"TLSv1.3 pending early data end\00", align 1
@.str.49 = private unnamed_addr constant [32 x i8] c"TLSv1.3 write end of early data\00", align 1
@.str.50 = private unnamed_addr constant [31 x i8] c"TLSv1.3 read end of early data\00", align 1
@.str.51 = private unnamed_addr constant [14 x i8] c"unknown state\00", align 1

; Function Attrs: nounwind uwtable
define ptr @SSL_state_string_long(ptr noundef %0) #0 {
  %2 = alloca ptr, align 8
  %3 = alloca ptr, align 8
  %4 = alloca ptr, align 8
  %5 = alloca i32, align 4
  store ptr %0, ptr %3, align 8, !tbaa !3
  call void @llvm.lifetime.start.p0(i64 8, ptr %4) #3
  %6 = load ptr, ptr %3, align 8, !tbaa !3
  %7 = icmp eq ptr %6, null
  br i1 %7, label %8, label %9

8:                                                ; preds = %1
  br label %30

9:                                                ; preds = %1
  %10 = load ptr, ptr %3, align 8, !tbaa !3
  %11 = getelementptr inbounds nuw %struct.ssl_st, ptr %10, i32 0, i32 0
  %12 = load i32, ptr %11, align 8, !tbaa !8
  %13 = icmp eq i32 %12, 0
  br i1 %13, label %14, label %16

14:                                               ; preds = %9
  %15 = load ptr, ptr %3, align 8, !tbaa !3
  br label %28

16:                                               ; preds = %9
  %17 = load ptr, ptr %3, align 8, !tbaa !3
  %18 = getelementptr inbounds nuw %struct.ssl_st, ptr %17, i32 0, i32 0
  %19 = load i32, ptr %18, align 8, !tbaa !8
  %20 = and i32 %19, 128
  %21 = icmp ne i32 %20, 0
  br i1 %21, label %22, label %25

22:                                               ; preds = %16
  %23 = load ptr, ptr %3, align 8, !tbaa !3
  %24 = call ptr @ossl_quic_obj_get0_handshake_layer(ptr noundef %23)
  br label %26

25:                                               ; preds = %16
  br label %26

26:                                               ; preds = %25, %22
  %27 = phi ptr [ %24, %22 ], [ null, %25 ]
  br label %28

28:                                               ; preds = %26, %14
  %29 = phi ptr [ %15, %14 ], [ %27, %26 ]
  br label %30

30:                                               ; preds = %28, %8
  %31 = phi ptr [ null, %8 ], [ %29, %28 ]
  store ptr %31, ptr %4, align 8, !tbaa !17
  %32 = load ptr, ptr %4, align 8, !tbaa !17
  %33 = icmp eq ptr %32, null
  br i1 %33, label %38, label %34

34:                                               ; preds = %30
  %35 = load ptr, ptr %4, align 8, !tbaa !17
  %36 = call i32 @ossl_statem_in_error(ptr noundef %35)
  %37 = icmp ne i32 %36, 0
  br i1 %37, label %38, label %39

38:                                               ; preds = %34, %30
  store ptr @.str, ptr %2, align 8
  store i32 1, ptr %5, align 4
  br label %93

39:                                               ; preds = %34
  %40 = load ptr, ptr %3, align 8, !tbaa !3
  %41 = call i32 @SSL_get_state(ptr noundef %40)
  switch i32 %41, label %92 [
    i32 6, label %42
    i32 19, label %43
    i32 34, label %44
    i32 38, label %45
    i32 0, label %46
    i32 1, label %47
    i32 13, label %48
    i32 3, label %49
    i32 4, label %50
    i32 5, label %51
    i32 7, label %52
    i32 8, label %53
    i32 10, label %54
    i32 9, label %55
    i32 14, label %56
    i32 15, label %57
    i32 16, label %58
    i32 17, label %59
    i32 18, label %60
    i32 39, label %60
    i32 20, label %61
    i32 40, label %61
    i32 11, label %62
    i32 35, label %62
    i32 12, label %63
    i32 36, label %63
    i32 22, label %64
    i32 21, label %65
    i32 24, label %66
    i32 25, label %67
    i32 26, label %68
    i32 27, label %69
    i32 28, label %70
    i32 37, label %71
    i32 29, label %72
    i32 30, label %73
    i32 31, label %74
    i32 32, label %75
    i32 33, label %76
    i32 2, label %77
    i32 23, label %78
    i32 41, label %79
    i32 42, label %80
    i32 43, label %81
    i32 44, label %82
    i32 45, label %83
    i32 46, label %84
    i32 47, label %85
    i32 48, label %86
    i32 49, label %87
    i32 50, label %88
    i32 51, label %89
    i32 52, label %90
    i32 53, label %91
  ]

42:                                               ; preds = %39
  store ptr @.str.1, ptr %2, align 8
  store i32 1, ptr %5, align 4
  br label %93

43:                                               ; preds = %39
  store ptr @.str.2, ptr %2, align 8
  store i32 1, ptr %5, align 4
  br label %93

44:                                               ; preds = %39
  store ptr @.str.3, ptr %2, align 8
  store i32 1, ptr %5, align 4
  br label %93

45:                                               ; preds = %39
  store ptr @.str.4, ptr %2, align 8
  store i32 1, ptr %5, align 4
  br label %93

46:                                               ; preds = %39
  store ptr @.str.5, ptr %2, align 8
  store i32 1, ptr %5, align 4
  br label %93

47:                                               ; preds = %39
  store ptr @.str.6, ptr %2, align 8
  store i32 1, ptr %5, align 4
  br label %93

48:                                               ; preds = %39
  store ptr @.str.7, ptr %2, align 8
  store i32 1, ptr %5, align 4
  br label %93

49:                                               ; preds = %39
  store ptr @.str.8, ptr %2, align 8
  store i32 1, ptr %5, align 4
  br label %93

50:                                               ; preds = %39
  store ptr @.str.9, ptr %2, align 8
  store i32 1, ptr %5, align 4
  br label %93

51:                                               ; preds = %39
  store ptr @.str.10, ptr %2, align 8
  store i32 1, ptr %5, align 4
  br label %93

52:                                               ; preds = %39
  store ptr @.str.11, ptr %2, align 8
  store i32 1, ptr %5, align 4
  br label %93

53:                                               ; preds = %39
  store ptr @.str.12, ptr %2, align 8
  store i32 1, ptr %5, align 4
  br label %93

54:                                               ; preds = %39
  store ptr @.str.13, ptr %2, align 8
  store i32 1, ptr %5, align 4
  br label %93

55:                                               ; preds = %39
  store ptr @.str.14, ptr %2, align 8
  store i32 1, ptr %5, align 4
  br label %93

56:                                               ; preds = %39
  store ptr @.str.15, ptr %2, align 8
  store i32 1, ptr %5, align 4
  br label %93

57:                                               ; preds = %39
  store ptr @.str.16, ptr %2, align 8
  store i32 1, ptr %5, align 4
  br label %93

58:                                               ; preds = %39
  store ptr @.str.17, ptr %2, align 8
  store i32 1, ptr %5, align 4
  br label %93

59:                                               ; preds = %39
  store ptr @.str.18, ptr %2, align 8
  store i32 1, ptr %5, align 4
  br label %93

60:                                               ; preds = %39, %39
  store ptr @.str.19, ptr %2, align 8
  store i32 1, ptr %5, align 4
  br label %93

61:                                               ; preds = %39, %39
  store ptr @.str.20, ptr %2, align 8
  store i32 1, ptr %5, align 4
  br label %93

62:                                               ; preds = %39, %39
  store ptr @.str.21, ptr %2, align 8
  store i32 1, ptr %5, align 4
  br label %93

63:                                               ; preds = %39, %39
  store ptr @.str.22, ptr %2, align 8
  store i32 1, ptr %5, align 4
  br label %93

64:                                               ; preds = %39
  store ptr @.str.23, ptr %2, align 8
  store i32 1, ptr %5, align 4
  br label %93

65:                                               ; preds = %39
  store ptr @.str.24, ptr %2, align 8
  store i32 1, ptr %5, align 4
  br label %93

66:                                               ; preds = %39
  store ptr @.str.25, ptr %2, align 8
  store i32 1, ptr %5, align 4
  br label %93

67:                                               ; preds = %39
  store ptr @.str.26, ptr %2, align 8
  store i32 1, ptr %5, align 4
  br label %93

68:                                               ; preds = %39
  store ptr @.str.27, ptr %2, align 8
  store i32 1, ptr %5, align 4
  br label %93

69:                                               ; preds = %39
  store ptr @.str.28, ptr %2, align 8
  store i32 1, ptr %5, align 4
  br label %93

70:                                               ; preds = %39
  store ptr @.str.29, ptr %2, align 8
  store i32 1, ptr %5, align 4
  br label %93

71:                                               ; preds = %39
  store ptr @.str.30, ptr %2, align 8
  store i32 1, ptr %5, align 4
  br label %93

72:                                               ; preds = %39
  store ptr @.str.31, ptr %2, align 8
  store i32 1, ptr %5, align 4
  br label %93

73:                                               ; preds = %39
  store ptr @.str.32, ptr %2, align 8
  store i32 1, ptr %5, align 4
  br label %93

74:                                               ; preds = %39
  store ptr @.str.33, ptr %2, align 8
  store i32 1, ptr %5, align 4
  br label %93

75:                                               ; preds = %39
  store ptr @.str.34, ptr %2, align 8
  store i32 1, ptr %5, align 4
  br label %93

76:                                               ; preds = %39
  store ptr @.str.35, ptr %2, align 8
  store i32 1, ptr %5, align 4
  br label %93

77:                                               ; preds = %39
  store ptr @.str.36, ptr %2, align 8
  store i32 1, ptr %5, align 4
  br label %93

78:                                               ; preds = %39
  store ptr @.str.37, ptr %2, align 8
  store i32 1, ptr %5, align 4
  br label %93

79:                                               ; preds = %39
  store ptr @.str.38, ptr %2, align 8
  store i32 1, ptr %5, align 4
  br label %93

80:                                               ; preds = %39
  store ptr @.str.39, ptr %2, align 8
  store i32 1, ptr %5, align 4
  br label %93

81:                                               ; preds = %39
  store ptr @.str.40, ptr %2, align 8
  store i32 1, ptr %5, align 4
  br label %93

82:                                               ; preds = %39
  store ptr @.str.41, ptr %2, align 8
  store i32 1, ptr %5, align 4
  br label %93

83:                                               ; preds = %39
  store ptr @.str.42, ptr %2, align 8
  store i32 1, ptr %5, align 4
  br label %93

84:                                               ; preds = %39
  store ptr @.str.43, ptr %2, align 8
  store i32 1, ptr %5, align 4
  br label %93

85:                                               ; preds = %39
  store ptr @.str.44, ptr %2, align 8
  store i32 1, ptr %5, align 4
  br label %93

86:                                               ; preds = %39
  store ptr @.str.45, ptr %2, align 8
  store i32 1, ptr %5, align 4
  br label %93

87:                                               ; preds = %39
  store ptr @.str.46, ptr %2, align 8
  store i32 1, ptr %5, align 4
  br label %93

88:                                               ; preds = %39
  store ptr @.str.47, ptr %2, align 8
  store i32 1, ptr %5, align 4
  br label %93

89:                                               ; preds = %39
  store ptr @.str.48, ptr %2, align 8
  store i32 1, ptr %5, align 4
  br label %93

90:                                               ; preds = %39
  store ptr @.str.49, ptr %2, align 8
  store i32 1, ptr %5, align 4
  br label %93

91:                                               ; preds = %39
  store ptr @.str.50, ptr %2, align 8
  store i32 1, ptr %5, align 4
  br label %93

92:                                               ; preds = %39
  store ptr @.str.51, ptr %2, align 8
  store i32 1, ptr %5, align 4
  br label %93

93:                                               ; preds = %92, %91, %90, %89, %88, %87, %86, %85, %84, %83, %82, %81, %80, %79, %78, %77, %76, %75, %74, %73, %72, %71, %70, %69, %68, %67, %66, %65, %64, %63, %62, %61, %60, %59, %58, %57, %56, %55, %54, %53, %52, %51, %50, %49, %48, %47, %46, %45, %44, %43, %42, %38
  call void @llvm.lifetime.end.p0(i64 8, ptr %4) #3
  %94 = load ptr, ptr %2, align 8
  ret ptr %94
}