; Function Attrs: nounwind uwtable
define noundef nonnull ptr @SSL_state_string_long(ptr noundef %0) local_unnamed_addr #0 {
  %2 = icmp eq ptr %0, null
  br i1 %2, label %.thread, label %3

3:                                                ; preds = %1
  %4 = load i32, ptr %0, align 8, !tbaa !3
  %5 = icmp eq i32 %4, 0
  br i1 %5, label %.thread13, label %6

6:                                                ; preds = %3
  %7 = and i32 %4, 128
  %.not = icmp eq i32 %7, 0
  br i1 %.not, label %.thread, label %8

8:                                                ; preds = %6
  %9 = tail call ptr @ossl_quic_obj_get0_handshake_layer(ptr noundef nonnull %0) #3
  %10 = icmp eq ptr %9, null
  br i1 %10, label %.thread, label %.thread13

.thread13:                                        ; preds = %3, %8
  %11 = phi ptr [ %9, %8 ], [ %0, %3 ]
  %12 = tail call i32 @ossl_statem_in_error(ptr noundef nonnull %11) #3
  %.not12 = icmp eq i32 %12, 0
  br i1 %.not12, label %13, label %.thread

13:                                               ; preds = %.thread13
  %14 = tail call i32 @SSL_get_state(ptr noundef nonnull %0) #3
  %15 = icmp ult i32 %14, 54
  br i1 %15, label %switch.lookup, label %.thread

switch.lookup:                                    ; preds = %13
  %16 = zext nneg i32 %14 to i64
  %switch.gep = getelementptr inbounds nuw [54 x ptr], ptr @switch.table.SSL_state_string_long, i64 0, i64 %16
  %switch.load = load ptr, ptr %switch.gep, align 8
  br label %.thread

.thread:                                          ; preds = %13, %switch.lookup, %6, %1, %8, %.thread13
  %.0 = phi ptr [ @.str, %.thread13 ], [ @.str, %8 ], [ @.str, %1 ], [ @.str, %6 ], [ %switch.load, %switch.lookup ], [ @.str.51, %13 ]
  ret ptr %.0
}